target datalayout = "e-m:e-p270:32:32-p271:32:32-p272:64:64-i64:64-i128:128-f80:128-n8:16:32:64-S128"
target triple = "x86_64-pc-linux-gnu"

%class.anon.68 = type { i32, i32, i32, i32, ptr, ptr, ptr, ptr, ptr, ptr, ptr, ptr, ptr, ptr, ptr, ptr, ptr, ptr, ptr, ptr, ptr, ptr }
%"struct.std::__future_base::_Task_state_base" = type { %"class.std::__future_base::_State_baseV2.base", %"class.std::unique_ptr.223" }
%"class.std::__future_base::_State_baseV2.base" = type <{ ptr, %"class.std::unique_ptr.215", %"class.std::__atomic_futex_unsigned", %"struct.std::atomic_flag", [3 x i8], %"struct.std::once_flag" }>
%"class.std::unique_ptr.215" = type { %"struct.std::__uniq_ptr_data.216" }
%"struct.std::__uniq_ptr_data.216" = type { %"class.std::__uniq_ptr_impl.217" }
%"class.std::__uniq_ptr_impl.217" = type { %"class.std::tuple.218" }
%"class.std::tuple.218" = type { %"struct.std::_Tuple_impl.219" }
%"struct.std::_Tuple_impl.219" = type { %"struct.std::_Head_base.222" }
%"struct.std::_Head_base.222" = type { ptr }
%"class.std::__atomic_futex_unsigned" = type { %"struct.std::atomic" }
%"struct.std::atomic" = type { %"struct.std::__atomic_base" }
%"struct.std::__atomic_base" = type { i32 }
%"struct.std::atomic_flag" = type { %"struct.std::__atomic_flag_base" }
%"struct.std::__atomic_flag_base" = type { i8 }
%"struct.std::once_flag" = type { i32 }
%"class.std::unique_ptr.223" = type { %"struct.std::__uniq_ptr_data.224" }
%"struct.std::__uniq_ptr_data.224" = type { %"class.std::__uniq_ptr_impl.225" }
%"class.std::__uniq_ptr_impl.225" = type { %"class.std::tuple.226" }
%"class.std::tuple.226" = type { %"struct.std::_Tuple_impl.227" }
%"struct.std::_Tuple_impl.227" = type { %"struct.std::_Head_base.228" }
%"struct.std::_Head_base.228" = type { ptr }
%"class.std::__future_base::_State_baseV2" = type <{ ptr, %"class.std::unique_ptr.215", %"class.std::__atomic_futex_unsigned", %"struct.std::atomic_flag", [3 x i8], %"struct.std::once_flag", [4 x i8] }>
%"struct.std::__future_base::_Task_state.262" = type { %"struct.std::__future_base::_Task_state_base", %"struct.std::__future_base::_Task_state<(lambda at /home/dtcxzyw/WorkSpace/Projects/compilers/llvm-opt-benchmark/bench/oiio/OpenImageIO/src/tiff.imageio/tiffoutput.cpp:1647:39), std::allocator<int>, void (int)>::_Impl" }
%"struct.std::__future_base::_Task_state<(lambda at /home/dtcxzyw/WorkSpace/Projects/compilers/llvm-opt-benchmark/bench/oiio/OpenImageIO/src/tiff.imageio/tiffoutput.cpp:1647:39), std::allocator<int>, void (int)>::_Impl" = type { %class.anon.68 }

; Function Attrs: mustprogress nounwind uwtable
define linkonce_odr noundef nonnull align 8 dereferenceable(8) ptr @_ZNSt10_Head_baseILm0EPNSt13__future_base12_Result_baseELb0EE7_M_headERS3_(ptr noundef nonnull align 8 dereferenceable(8) %0) #8 comdat align 2 {
  %2 = alloca ptr, align 8
  store ptr %0, ptr %2, align 8, !tbaa !1218
  %3 = load ptr, ptr %2, align 8, !tbaa !1218
  %4 = getelementptr inbounds nuw %"struct.std::_Head_base.222", ptr %3, i32 0, i32 0
  ret ptr %4
}

; Function Attrs: mustprogress nounwind uwtable
define linkonce_odr noundef nonnull align 1 dereferenceable(1) ptr @_ZNSt10_Head_baseILm1ENSt13__future_base12_Result_base8_DeleterELb1EE7_M_headERS3_(ptr noundef nonnull align 1 dereferenceable(1) %0) #8 comdat align 2 {
  %2 = alloca ptr, align 8
  store ptr %0, ptr %2, align 8, !tbaa !1223
  %3 = load ptr, ptr %2, align 8, !tbaa !1223
  ret ptr %3
}

; Function Attrs: mustprogress nounwind uwtable
define linkonce_odr noundef nonnull align 8 dereferenceable(8) ptr @_ZNSt11_Tuple_implILm0EJPNSt13__future_base12_Result_baseENS1_8_DeleterEEE7_M_headERS4_(ptr noundef nonnull align 8 dereferenceable(8) %0) #8 comdat align 2 {
  %2 = alloca ptr, align 8
  store ptr %0, ptr %2, align 8, !tbaa !1214
  %3 = load ptr, ptr %2, align 8, !tbaa !1214
  %4 = call noundef nonnull align 8 dereferenceable(8) ptr @_ZNSt10_Head_baseILm0EPNSt13__future_base12_Result_baseELb0EE7_M_headERS3_(ptr noundef nonnull align 8 dereferenceable(8) %3) #3
  ret ptr %4
}

; Function Attrs: mustprogress nounwind uwtable
define linkonce_odr noundef nonnull align 1 dereferenceable(1) ptr @_ZNSt11_Tuple_implILm1EJNSt13__future_base12_Result_base8_DeleterEEE7_M_headERS3_(ptr noundef nonnull align 1 dereferenceable(1) %0) #8 comdat align 2 {
  %2 = alloca ptr, align 8
  store ptr %0, ptr %2, align 8, !tbaa !1216
  %3 = load ptr, ptr %2, align 8, !tbaa !1216
  %4 = call noundef nonnull align 1 dereferenceable(1) ptr @_ZNSt10_Head_baseILm1ENSt13__future_base12_Result_base8_DeleterELb1EE7_M_headERS3_(ptr noundef nonnull align 1 dereferenceable(1) %3) #3
  ret ptr %4
}

; Function Attrs: mustprogress nounwind uwtable
define linkonce_odr noundef nonnull align 8 dereferenceable(8) ptr @_ZNSt10_Head_baseILm0EPNSt13__future_base7_ResultIvEELb0EE7_M_headERS4_(ptr noundef nonnull align 8 dereferenceable(8) %0) #8 comdat align 2 {
  %2 = alloca ptr, align 8
  store ptr %0, ptr %2, align 8, !tbaa !1243
  %3 = load ptr, ptr %2, align 8, !tbaa !1243
  %4 = getelementptr inbounds nuw %"struct.std::_Head_base.228", ptr %3, i32 0, i32 0
  ret ptr %4
}

; Function Attrs: mustprogress nounwind uwtable
define linkonce_odr noundef nonnull align 1 dereferenceable(1) ptr @_ZSt3getILm1EJPNSt13__future_base12_Result_baseENS1_8_DeleterEEERNSt13tuple_elementIXT_ESt5tupleIJDpT0_EEE4typeERS8_(ptr noundef nonnull align 8 dereferenceable(8) %0) #8 comdat {
  %2 = alloca ptr, align 8
  store ptr %0, ptr %2, align 8, !tbaa !1212
  %3 = load ptr, ptr %2, align 8, !tbaa !1212
  %4 = call noundef nonnull align 1 dereferenceable(1) ptr @_ZSt12__get_helperILm1ENSt13__future_base12_Result_base8_DeleterEJEERT0_RSt11_Tuple_implIXT_EJS3_DpT1_EE(ptr noundef nonnull align 1 dereferenceable(1) %3) #3
  ret ptr %4
}

; Function Attrs: mustprogress nounwind uwtable
define linkonce_odr noundef nonnull align 8 dereferenceable(8) ptr @_ZSt12__get_helperILm0EPNSt13__future_base12_Result_baseEJNS1_8_DeleterEEERT0_RSt11_Tuple_implIXT_EJS4_DpT1_EE(ptr noundef nonnull align 8 dereferenceable(8) %0) #8 comdat {
  %2 = alloca ptr, align 8
  store ptr %0, ptr %2, align 8, !tbaa !1214
  %3 = load ptr, ptr %2, align 8, !tbaa !1214
  %4 = call noundef nonnull align 8 dereferenceable(8) ptr @_ZNSt11_Tuple_implILm0EJPNSt13__future_base12_Result_baseENS1_8_DeleterEEE7_M_headERS4_(ptr noundef nonnull align 8 dereferenceable(8) %3) #3
  ret ptr %4
}

; Function Attrs: mustprogress nounwind uwtable
define linkonce_odr noundef nonnull align 1 dereferenceable(1) ptr @_ZSt12__get_helperILm1ENSt13__future_base12_Result_base8_DeleterEJEERT0_RSt11_Tuple_implIXT_EJS3_DpT1_EE(ptr noundef nonnull align 1 dereferenceable(1) %0) #8 comdat {
  %2 = alloca ptr, align 8
  store ptr %0, ptr %2, align 8, !tbaa !1216
  %3 = load ptr, ptr %2, align 8, !tbaa !1216
  %4 = call noundef nonnull align 1 dereferenceable(1) ptr @_ZNSt11_Tuple_implILm1EJNSt13__future_base12_Result_base8_DeleterEEE7_M_headERS3_(ptr noundef nonnull align 1 dereferenceable(1) %3) #3
  ret ptr %4
}

; Function Attrs: mustprogress nounwind uwtable
define linkonce_odr noundef nonnull align 8 dereferenceable(8) ptr @_ZNSt11_Tuple_implILm0EJPNSt13__future_base7_ResultIvEENS0_12_Result_base8_DeleterEEE7_M_headERS6_(ptr noundef nonnull align 8 dereferenceable(8) %0) #8 comdat align 2 {
  %2 = alloca ptr, align 8
  store ptr %0, ptr %2, align 8, !tbaa !1241
  %3 = load ptr, ptr %2, align 8, !tbaa !1241
  %4 = call noundef nonnull align 8 dereferenceable(8) ptr @_ZNSt10_Head_baseILm0EPNSt13__future_base7_ResultIvEELb0EE7_M_headERS4_(ptr noundef nonnull align 8 dereferenceable(8) %3) #3
  ret ptr %4
}

; Function Attrs: mustprogress nounwind uwtable
define linkonce_odr noundef nonnull align 1 dereferenceable(1) ptr @_ZNSt15__uniq_ptr_implINSt13__future_base12_Result_baseENS1_8_DeleterEE10_M_deleterEv(ptr noundef nonnull align 8 dereferenceable(8) %0) #8 comdat align 2 {
  %2 = alloca ptr, align 8
  store ptr %0, ptr %2, align 8, !tbaa !1210
  %3 = load ptr, ptr %2, align 8
  %4 = getelementptr inbounds nuw %"class.std::__uniq_ptr_impl.217", ptr %3, i32 0, i32 0
  %5 = call noundef nonnull align 1 dereferenceable(1) ptr @_ZSt3getILm1EJPNSt13__future_base12_Result_baseENS1_8_DeleterEEERNSt13tuple_elementIXT_ESt5tupleIJDpT0_EEE4typeERS8_(ptr noundef nonnull align 8 dereferenceable(8) %4) #3
  ret ptr %5
}

; Function Attrs: mustprogress nounwind uwtable
define linkonce_odr noundef nonnull align 8 dereferenceable(8) ptr @_ZSt3getILm0EJPNSt13__future_base12_Result_baseENS1_8_DeleterEEERNSt13tuple_elementIXT_ESt5tupleIJDpT0_EEE4typeERS8_(ptr noundef nonnull align 8 dereferenceable(8) %0) #8 comdat {
  %2 = alloca ptr, align 8
  store ptr %0, ptr %2, align 8, !tbaa !1212
  %3 = load ptr, ptr %2, align 8, !tbaa !1212
  %4 = call noundef nonnull align 8 dereferenceable(8) ptr @_ZSt12__get_helperILm0EPNSt13__future_base12_Result_baseEJNS1_8_DeleterEEERT0_RSt11_Tuple_implIXT_EJS4_DpT1_EE(ptr noundef nonnull align 8 dereferenceable(8) %3) #3
  ret ptr %4
}

; Function Attrs: mustprogress nounwind uwtable
define linkonce_odr noundef nonnull align 1 dereferenceable(1) ptr @_ZSt3getILm1EJPNSt13__future_base7_ResultIvEENS0_12_Result_base8_DeleterEEERNSt13tuple_elementIXT_ESt5tupleIJDpT0_EEE4typeERSA_(ptr noundef nonnull align 8 dereferenceable(8) %0) #8 comdat {
  %2 = alloca ptr, align 8
  store ptr %0, ptr %2, align 8, !tbaa !1239
  %3 = load ptr, ptr %2, align 8, !tbaa !1239
  %4 = call noundef nonnull align 1 dereferenceable(1) ptr @_ZSt12__get_helperILm1ENSt13__future_base12_Result_base8_DeleterEJEERT0_RSt11_Tuple_implIXT_EJS3_DpT1_EE(ptr noundef nonnull align 1 dereferenceable(1) %3) #3
  ret ptr %4
}

; Function Attrs: mustprogress nounwind uwtable
define linkonce_odr noundef nonnull align 8 dereferenceable(8) ptr @_ZSt12__get_helperILm0EPNSt13__future_base7_ResultIvEEJNS0_12_Result_base8_DeleterEEERT0_RSt11_Tuple_implIXT_EJS6_DpT1_EE(ptr noundef nonnull align 8 dereferenceable(8) %0) #8 comdat {
  %2 = alloca ptr, align 8
  store ptr %0, ptr %2, align 8, !tbaa !1241
  %3 = load ptr, ptr %2, align 8, !tbaa !1241
  %4 = call noundef nonnull align 8 dereferenceable(8) ptr @_ZNSt11_Tuple_implILm0EJPNSt13__future_base7_ResultIvEENS0_12_Result_base8_DeleterEEE7_M_headERS6_(ptr noundef nonnull align 8 dereferenceable(8) %3) #3
  ret ptr %4
}

; Function Attrs: mustprogress nounwind uwtable
define linkonce_odr noundef nonnull align 1 dereferenceable(1) ptr @_ZNSt10unique_ptrINSt13__future_base12_Result_baseENS1_8_DeleterEE11get_deleterEv(ptr noundef nonnull align 8 dereferenceable(8) %0) #8 comdat align 2 {
  %2 = alloca ptr, align 8
  store ptr %0, ptr %2, align 8, !tbaa !1196
  %3 = load ptr, ptr %2, align 8
  %4 = getelementptr inbounds nuw %"class.std::unique_ptr.215", ptr %3, i32 0, i32 0
  %5 = call noundef nonnull align 1 dereferenceable(1) ptr @_ZNSt15__uniq_ptr_implINSt13__future_base12_Result_baseENS1_8_DeleterEE10_M_deleterEv(ptr noundef nonnull align 8 dereferenceable(8) %4) #3
  ret ptr %5
}

; Function Attrs: mustprogress nounwind uwtable
define linkonce_odr noundef nonnull align 8 dereferenceable(8) ptr @_ZNSt15__uniq_ptr_implINSt13__future_base12_Result_baseENS1_8_DeleterEE6_M_ptrEv(ptr noundef nonnull align 8 dereferenceable(8) %0) #8 comdat align 2 {
  %2 = alloca ptr, align 8
  store ptr %0, ptr %2, align 8, !tbaa !1210
  %3 = load ptr, ptr %2, align 8
  %4 = getelementptr inbounds nuw %"class.std::__uniq_ptr_impl.217", ptr %3, i32 0, i32 0
  %5 = call noundef nonnull align 8 dereferenceable(8) ptr @_ZSt3getILm0EJPNSt13__future_base12_Result_baseENS1_8_DeleterEEERNSt13tuple_elementIXT_ESt5tupleIJDpT0_EEE4typeERS8_(ptr noundef nonnull align 8 dereferenceable(8) %4) #3
  ret ptr %5
}

; Function Attrs: mustprogress nounwind uwtable
define linkonce_odr noundef nonnull align 1 dereferenceable(1) ptr @_ZNSt15__uniq_ptr_implINSt13__future_base7_ResultIvEENS0_12_Result_base8_DeleterEE10_M_deleterEv(ptr noundef nonnull align 8 dereferenceable(8) %0) #8 comdat align 2 {
  %2 = alloca ptr, align 8
  store ptr %0, ptr %2, align 8, !tbaa !1237
  %3 = load ptr, ptr %2, align 8
  %4 = getelementptr inbounds nuw %"class.std::__uniq_ptr_impl.225", ptr %3, i32 0, i32 0
  %5 = call noundef nonnull align 1 dereferenceable(1) ptr @_ZSt3getILm1EJPNSt13__future_base7_ResultIvEENS0_12_Result_base8_DeleterEEERNSt13tuple_elementIXT_ESt5tupleIJDpT0_EEE4typeERSA_(ptr noundef nonnull align 8 dereferenceable(8) %4) #3
  ret ptr %5
}

; Function Attrs: mustprogress nounwind uwtable
define linkonce_odr noundef nonnull align 8 dereferenceable(8) ptr @_ZSt3getILm0EJPNSt13__future_base7_ResultIvEENS0_12_Result_base8_DeleterEEERNSt13tuple_elementIXT_ESt5tupleIJDpT0_EEE4typeERSA_(ptr noundef nonnull align 8 dereferenceable(8) %0) #8 comdat {
  %2 = alloca ptr, align 8
  store ptr %0, ptr %2, align 8, !tbaa !1239
  %3 = load ptr, ptr %2, align 8, !tbaa !1239
  %4 = call noundef nonnull align 8 dereferenceable(8) ptr @_ZSt12__get_helperILm0EPNSt13__future_base7_ResultIvEEJNS0_12_Result_base8_DeleterEEERT0_RSt11_Tuple_implIXT_EJS6_DpT1_EE(ptr noundef nonnull align 8 dereferenceable(8) %3) #3
  ret ptr %4
}

; Function Attrs: mustprogress nounwind uwtable
define linkonce_odr void @_ZNSt10unique_ptrINSt13__future_base12_Result_baseENS1_8_DeleterEED2Ev(ptr noundef nonnull align 8 dereferenceable(8) %0) unnamed_addr #8 comdat align 2 personality ptr @__gxx_personality_v0 {
  %2 = alloca ptr, align 8
  %3 = alloca ptr, align 8
  store ptr %0, ptr %2, align 8, !tbaa !1196
  %4 = load ptr, ptr %2, align 8
  call void @llvm.lifetime.start.p0(i64 8, ptr %3) #3
  %5 = getelementptr inbounds nuw %"class.std::unique_ptr.215", ptr %4, i32 0, i32 0
  %6 = call noundef nonnull align 8 dereferenceable(8) ptr @_ZNSt15__uniq_ptr_implINSt13__future_base12_Result_baseENS1_8_DeleterEE6_M_ptrEv(ptr noundef nonnull align 8 dereferenceable(8) %5) #3
  store ptr %6, ptr %3, align 8, !tbaa !1247
  %7 = load ptr, ptr %3, align 8, !tbaa !1247
  %8 = load ptr, ptr %7, align 8, !tbaa !1249
  %9 = icmp ne ptr %8, null
  br i1 %9, label %10, label %15

10:                                               ; preds = %1
  %11 = call noundef nonnull align 1 dereferenceable(1) ptr @_ZNSt10unique_ptrINSt13__future_base12_Result_baseENS1_8_DeleterEE11get_deleterEv(ptr noundef nonnull align 8 dereferenceable(8) %4) #3
  %12 = load ptr, ptr %3, align 8, !tbaa !1247
  %13 = load ptr, ptr %12, align 8, !tbaa !1249
  invoke void @_ZNKSt13__future_base12_Result_base8_DeleterclEPS0_(ptr noundef nonnull align 1 dereferenceable(1) %11, ptr noundef %13)
          to label %14 unwind label %17

14:                                               ; preds = %10
  br label %15

15:                                               ; preds = %14, %1
  %16 = load ptr, ptr %3, align 8, !tbaa !1247
  store ptr null, ptr %16, align 8, !tbaa !1249
  call void @llvm.lifetime.end.p0(i64 8, ptr %3) #3
  ret void

17:                                               ; preds = %10
  %18 = landingpad { ptr, i32 }
          catch ptr null
  %19 = extractvalue { ptr, i32 } %18, 0
  call void @__clang_call_terminate(ptr %19) #29
  unreachable
}

; Function Attrs: mustprogress uwtable
define linkonce_odr void @_ZNKSt13__future_base12_Result_base8_DeleterclEPS0_(ptr noundef nonnull align 1 dereferenceable(1) %0, ptr noundef %1) #6 comdat align 2 {
  %3 = alloca ptr, align 8
  %4 = alloca ptr, align 8
  store ptr %0, ptr %3, align 8, !tbaa !1250
  store ptr %1, ptr %4, align 8, !tbaa !1249
  %5 = load ptr, ptr %4, align 8, !tbaa !1249
  %6 = load ptr, ptr %5, align 8, !tbaa !28
  %7 = getelementptr inbounds ptr, ptr %6, i64 0
  %8 = load ptr, ptr %7, align 8
  call void %8(ptr noundef nonnull align 8 dereferenceable(16) %5)
  ret void
}

; Function Attrs: mustprogress nounwind uwtable
define linkonce_odr noundef nonnull align 1 dereferenceable(1) ptr @_ZNSt10unique_ptrINSt13__future_base7_ResultIvEENS0_12_Result_base8_DeleterEE11get_deleterEv(ptr noundef nonnull align 8 dereferenceable(8) %0) #8 comdat align 2 {
  %2 = alloca ptr, align 8
  store ptr %0, ptr %2, align 8, !tbaa !1233
  %3 = load ptr, ptr %2, align 8
  %4 = getelementptr inbounds nuw %"class.std::unique_ptr.223", ptr %3, i32 0, i32 0
  %5 = call noundef nonnull align 1 dereferenceable(1) ptr @_ZNSt15__uniq_ptr_implINSt13__future_base7_ResultIvEENS0_12_Result_base8_DeleterEE10_M_deleterEv(ptr noundef nonnull align 8 dereferenceable(8) %4) #3
  ret ptr %5
}

; Function Attrs: mustprogress nounwind uwtable
define linkonce_odr noundef nonnull align 8 dereferenceable(8) ptr @_ZNSt15__uniq_ptr_implINSt13__future_base7_ResultIvEENS0_12_Result_base8_DeleterEE6_M_ptrEv(ptr noundef nonnull align 8 dereferenceable(8) %0) #8 comdat align 2 {
  %2 = alloca ptr, align 8
  store ptr %0, ptr %2, align 8, !tbaa !1237
  %3 = load ptr, ptr %2, align 8
  %4 = getelementptr inbounds nuw %"class.std::__uniq_ptr_impl.225", ptr %3, i32 0, i32 0
  %5 = call noundef nonnull align 8 dereferenceable(8) ptr @_ZSt3getILm0EJPNSt13__future_base7_ResultIvEENS0_12_Result_base8_DeleterEEERNSt13tuple_elementIXT_ESt5tupleIJDpT0_EEE4typeERSA_(ptr noundef nonnull align 8 dereferenceable(8) %4) #3
  ret ptr %5
}

; Function Attrs: mustprogress nounwind uwtable
define linkonce_odr void @_ZNSt13__future_base13_State_baseV2D2Ev(ptr noundef nonnull align 8 dereferenceable(28) %0) unnamed_addr #8 comdat align 2 {
  %2 = alloca ptr, align 8
  store ptr %0, ptr %2, align 8, !tbaa !1189
  %3 = load ptr, ptr %2, align 8
  store ptr getelementptr inbounds inrange(-16, 32) ({ [6 x ptr] }, ptr @_ZTVNSt13__future_base13_State_baseV2E, i32 0, i32 0, i32 2), ptr %3, align 8, !tbaa !28
  %4 = getelementptr inbounds nuw %"class.std::__future_base::_State_baseV2", ptr %3, i32 0, i32 1
  call void @_ZNSt10unique_ptrINSt13__future_base12_Result_baseENS1_8_DeleterEED2Ev(ptr noundef nonnull align 8 dereferenceable(8) %4) #3
  ret void
}

; Function Attrs: mustprogress nounwind uwtable
define linkonce_odr void @_ZNSt10unique_ptrINSt13__future_base7_ResultIvEENS0_12_Result_base8_DeleterEED2Ev(ptr noundef nonnull align 8 dereferenceable(8) %0) unnamed_addr #8 comdat align 2 personality ptr @__gxx_personality_v0 {
  %2 = alloca ptr, align 8
  %3 = alloca ptr, align 8
  store ptr %0, ptr %2, align 8, !tbaa !1233
  %4 = load ptr, ptr %2, align 8
  call void @llvm.lifetime.start.p0(i64 8, ptr %3) #3
  %5 = getelementptr inbounds nuw %"class.std::unique_ptr.223", ptr %4, i32 0, i32 0
  %6 = call noundef nonnull align 8 dereferenceable(8) ptr @_ZNSt15__uniq_ptr_implINSt13__future_base7_ResultIvEENS0_12_Result_base8_DeleterEE6_M_ptrEv(ptr noundef nonnull align 8 dereferenceable(8) %5) #3
  store ptr %6, ptr %3, align 8, !tbaa !1252
  %7 = load ptr, ptr %3, align 8, !tbaa !1252
  %8 = load ptr, ptr %7, align 8, !tbaa !1231
  %9 = icmp ne ptr %8, null
  br i1 %9, label %10, label %15

10:                                               ; preds = %1
  %11 = call noundef nonnull align 1 dereferenceable(1) ptr @_ZNSt10unique_ptrINSt13__future_base7_ResultIvEENS0_12_Result_base8_DeleterEE11get_deleterEv(ptr noundef nonnull align 8 dereferenceable(8) %4) #3
  %12 = load ptr, ptr %3, align 8, !tbaa !1252
  %13 = load ptr, ptr %12, align 8, !tbaa !1231
  invoke void @_ZNKSt13__future_base12_Result_base8_DeleterclEPS0_(ptr noundef nonnull align 1 dereferenceable(1) %11, ptr noundef %13)
          to label %14 unwind label %17

14:                                               ; preds = %10
  br label %15

15:                                               ; preds = %14, %1
  %16 = load ptr, ptr %3, align 8, !tbaa !1252
  store ptr null, ptr %16, align 8, !tbaa !1231
  call void @llvm.lifetime.end.p0(i64 8, ptr %3) #3
  ret void

17:                                               ; preds = %10
  %18 = landingpad { ptr, i32 }
          catch ptr null
  %19 = extractvalue { ptr, i32 } %18, 0
  call void @__clang_call_terminate(ptr %19) #29
  unreachable
}

; Function Attrs: inlinehint mustprogress nounwind uwtable
define linkonce_odr void @_ZNSt13__future_base16_Task_state_baseIFviEED2Ev(ptr noundef nonnull align 8 dereferenceable(40) %0) unnamed_addr #4 comdat align 2 {
  %2 = alloca ptr, align 8
  store ptr %0, ptr %2, align 8, !tbaa !1184
  %3 = load ptr, ptr %2, align 8
  store ptr getelementptr inbounds inrange(-16, 56) ({ [9 x ptr] }, ptr @_ZTVNSt13__future_base16_Task_state_baseIFviEEE, i32 0, i32 0, i32 2), ptr %3, align 8, !tbaa !28
  %4 = getelementptr inbounds nuw %"struct.std::__future_base::_Task_state_base", ptr %3, i32 0, i32 1
  call void @_ZNSt10unique_ptrINSt13__future_base7_ResultIvEENS0_12_Result_base8_DeleterEED2Ev(ptr noundef nonnull align 8 dereferenceable(8) %4) #3
  call void @_ZNSt13__future_base13_State_baseV2D2Ev(ptr noundef nonnull align 8 dereferenceable(28) %3) #3
  ret void
}

; Function Attrs: mustprogress nounwind uwtable
define linkonce_odr void @_ZNSt15__new_allocatorIiED2Ev(ptr noundef nonnull align 1 dereferenceable(1) %0) unnamed_addr #8 comdat align 2 {
  %2 = alloca ptr, align 8
  store ptr %0, ptr %2, align 8, !tbaa !514
  ret void
}

; Function Attrs: inlinehint mustprogress nounwind uwtable
define internal void @"_ZNSt13__future_base11_Task_stateIZN11OpenImageIO6v3_1_010TIFFOutput11write_tilesEiiiiiiNS2_8TypeDescEPKvlllE3$_0SaIiEFviEED2Ev"(ptr noundef nonnull align 8 dereferenceable(200) %0) unnamed_addr #4 align 2 {
  %2 = alloca ptr, align 8
  store ptr %0, ptr %2, align 8, !tbaa !1374
  %3 = load ptr, ptr %2, align 8
  %4 = getelementptr inbounds nuw %"struct.std::__future_base::_Task_state.262", ptr %3, i32 0, i32 1
  call void @_ZNSt15__new_allocatorIiED2Ev(ptr noundef nonnull align 8 dereferenceable(160) %4) #3
  call void @_ZNSt13__future_base16_Task_state_baseIFviEED2Ev(ptr noundef nonnull align 8 dereferenceable(40) %3) #3
  ret void
}