; Function Attrs: inlinehint mustprogress nounwind uwtable
define internal void @"_ZNSt13__future_base11_Task_stateIZN11OpenImageIO6v3_1_010TIFFOutput11write_tilesEiiiiiiNS2_8TypeDescEPKvlllE3$_0SaIiEFviEED2Ev"(ptr noundef nonnull align 8 captures(none) dereferenceable(200) initializes((0, 8)) %0) unnamed_addr #3 align 2 personality ptr @__gxx_personality_v0 {
  store ptr getelementptr inbounds nuw inrange(-16, 56) (i8, ptr @_ZTVNSt13__future_base16_Task_state_baseIFviEEE, i64 16), ptr %0, align 8, !tbaa !21
  %2 = getelementptr inbounds nuw i8, ptr %0, i64 32
  %3 = load ptr, ptr %2, align 8, !tbaa !809
  %.not.i.i = icmp eq ptr %3, null
  br i1 %.not.i.i, label %_ZNSt10unique_ptrINSt13__future_base7_ResultIvEENS0_12_Result_base8_DeleterEED2Ev.exit.i, label %4

4:                                                ; preds = %1
  %5 = load ptr, ptr %3, align 8, !tbaa !21
  %6 = load ptr, ptr %5, align 8
  invoke void %6(ptr noundef nonnull align 8 dereferenceable(16) %3)
          to label %_ZNSt10unique_ptrINSt13__future_base7_ResultIvEENS0_12_Result_base8_DeleterEED2Ev.exit.i unwind label %7

7:                                                ; preds = %4
  %8 = landingpad { ptr, i32 }
          catch ptr null
  %9 = extractvalue { ptr, i32 } %8, 0
  tail call void @__clang_call_terminate(ptr %9) #35
  unreachable

_ZNSt10unique_ptrINSt13__future_base7_ResultIvEENS0_12_Result_base8_DeleterEED2Ev.exit.i: ; preds = %4, %1
  store ptr null, ptr %2, align 8, !tbaa !809
  store ptr getelementptr inbounds nuw inrange(-16, 32) (i8, ptr @_ZTVNSt13__future_base13_State_baseV2E, i64 16), ptr %0, align 8, !tbaa !21
  %10 = getelementptr inbounds nuw i8, ptr %0, i64 8
  %11 = load ptr, ptr %10, align 8, !tbaa !813
  %.not.i.i.i = icmp eq ptr %11, null
  br i1 %.not.i.i.i, label %_ZNSt13__future_base16_Task_state_baseIFviEED2Ev.exit, label %12

12:                                               ; preds = %_ZNSt10unique_ptrINSt13__future_base7_ResultIvEENS0_12_Result_base8_DeleterEED2Ev.exit.i
  %13 = load ptr, ptr %11, align 8, !tbaa !21
  %14 = load ptr, ptr %13, align 8
  invoke void %14(ptr noundef nonnull align 8 dereferenceable(16) %11)
          to label %_ZNSt13__future_base16_Task_state_baseIFviEED2Ev.exit unwind label %15

15:                                               ; preds = %12
  %16 = landingpad { ptr, i32 }
          catch ptr null
  %17 = extractvalue { ptr, i32 } %16, 0
  tail call void @__clang_call_terminate(ptr %17) #35
  unreachable

_ZNSt13__future_base16_Task_state_baseIFviEED2Ev.exit: ; preds = %_ZNSt10unique_ptrINSt13__future_base7_ResultIvEENS0_12_Result_base8_DeleterEED2Ev.exit.i, %12
  store ptr null, ptr %10, align 8, !tbaa !813
  ret void
}